target datalayout = "e-m:e-p270:32:32-p271:32:32-p272:64:64-i64:64-i128:128-f80:128-n8:16:32:64-S128"
target triple = "x86_64-pc-linux-gnu"

%"struct.url::Component" = type { i32, i32 }

@_ZN3url20kSharedCharTypeTableE = external constant [256 x i8], align 16

; Function Attrs: inlinehint mustprogress nounwind uwtable
define linkonce_odr noundef zeroext i1 @_ZN3url12IsCharOfTypeEhNS_15SharedCharTypesE(i8 noundef zeroext %0, i32 noundef %1) #6 comdat {
  %3 = alloca i8, align 1
  %4 = alloca i32, align 4
  store i8 %0, ptr %3, align 1, !tbaa !12
  store i32 %1, ptr %4, align 4, !tbaa !69
  %5 = load i8, ptr %3, align 1, !tbaa !12
  %6 = zext i8 %5 to i64
  %7 = getelementptr inbounds nuw [256 x i8], ptr @_ZN3url20kSharedCharTypeTableE, i64 0, i64 %6
  %8 = load i8, ptr %7, align 1, !tbaa !12
  %9 = zext i8 %8 to i32
  %10 = load i32, ptr %4, align 4, !tbaa !69
  %11 = and i32 %9, %10
  %12 = icmp ne i32 %11, 0
  %13 = xor i1 %12, true
  %14 = xor i1 %13, true
  ret i1 %14
}

; Function Attrs: mustprogress nounwind uwtable
define linkonce_odr void @_ZN3url9ComponentC2Ev(ptr noundef nonnull align 4 dereferenceable(8) %0) unnamed_addr #3 comdat align 2 {
  %2 = alloca ptr, align 8
  store ptr %0, ptr %2, align 8, !tbaa !25
  %3 = load ptr, ptr %2, align 8
  %4 = getelementptr inbounds nuw %"struct.url::Component", ptr %3, i32 0, i32 0
  store i32 0, ptr %4, align 4, !tbaa !20
  %5 = getelementptr inbounds nuw %"struct.url::Component", ptr %3, i32 0, i32 1
  store i32 -1, ptr %5, align 4, !tbaa !22
  ret void
}

; Function Attrs: inlinehint mustprogress uwtable
define linkonce_odr noundef zeroext i1 @_ZN3url10IsIPv4CharEh(i8 noundef zeroext %0) #2 comdat {
  %2 = alloca i8, align 1
  store i8 %0, ptr %2, align 1, !tbaa !12
  %3 = load i8, ptr %2, align 1, !tbaa !12
  %4 = call noundef zeroext i1 @_ZN3url12IsCharOfTypeEhNS_15SharedCharTypesE(i8 noundef zeroext %3, i32 noundef 4)
  ret i1 %4
}

; Function Attrs: mustprogress nounwind uwtable
define linkonce_odr void @_ZN3url9ComponentC2Eii(ptr noundef nonnull align 4 dereferenceable(8) %0, i32 noundef %1, i32 noundef %2) unnamed_addr #3 comdat align 2 {
  %4 = alloca ptr, align 8
  %5 = alloca i32, align 4
  %6 = alloca i32, align 4
  store ptr %0, ptr %4, align 8, !tbaa !25
  store i32 %1, ptr %5, align 4, !tbaa !10
  store i32 %2, ptr %6, align 4, !tbaa !10
  %7 = load ptr, ptr %4, align 8
  %8 = getelementptr inbounds nuw %"struct.url::Component", ptr %7, i32 0, i32 0
  %9 = load i32, ptr %5, align 4, !tbaa !10
  store i32 %9, ptr %8, align 4, !tbaa !20
  %10 = getelementptr inbounds nuw %"struct.url::Component", ptr %7, i32 0, i32 1
  %11 = load i32, ptr %6, align 4, !tbaa !10
  store i32 %11, ptr %10, align 4, !tbaa !22
  ret void
}

; Function Attrs: mustprogress nounwind uwtable
define linkonce_odr noundef i32 @_ZNK3url9Component3endEv(ptr noundef nonnull align 4 dereferenceable(8) %0) #3 comdat align 2 {
  %2 = alloca ptr, align 8
  store ptr %0, ptr %2, align 8, !tbaa !25
  %3 = load ptr, ptr %2, align 8
  %4 = getelementptr inbounds nuw %"struct.url::Component", ptr %3, i32 0, i32 0
  %5 = load i32, ptr %4, align 4, !tbaa !20
  %6 = getelementptr inbounds nuw %"struct.url::Component", ptr %3, i32 0, i32 1
  %7 = load i32, ptr %6, align 4, !tbaa !22
  %8 = add nsw i32 %5, %7
  ret i32 %8
}

; Function Attrs: mustprogress nounwind uwtable
define linkonce_odr noundef zeroext i1 @_ZNK3url9Component11is_nonemptyEv(ptr noundef nonnull align 4 dereferenceable(8) %0) #3 comdat align 2 {
  %2 = alloca ptr, align 8
  store ptr %0, ptr %2, align 8, !tbaa !25
  %3 = load ptr, ptr %2, align 8
  %4 = getelementptr inbounds nuw %"struct.url::Component", ptr %3, i32 0, i32 1
  %5 = load i32, ptr %4, align 4, !tbaa !22
  %6 = icmp sgt i32 %5, 0
  ret i1 %6
}

; Function Attrs: mustprogress uwtable
define internal noundef zeroext i1 @_ZN3url12_GLOBAL__N_120DoFindIPv4ComponentsIchEEbPKT_RKNS_9ComponentEPS5_(ptr noundef %0, ptr noundef nonnull align 4 dereferenceable(8) %1, ptr noundef %2) #0 {
  %4 = alloca i1, align 1
  %5 = alloca ptr, align 8
  %6 = alloca ptr, align 8
  %7 = alloca ptr, align 8
  %8 = alloca i32, align 4
  %9 = alloca i32, align 4
  %10 = alloca i32, align 4
  %11 = alloca i32, align 4
  %12 = alloca i32, align 4
  %13 = alloca %"struct.url::Component", align 4
  %14 = alloca i32, align 4
  %15 = alloca %"struct.url::Component", align 4
  store ptr %0, ptr %5, align 8, !tbaa !3
  store ptr %1, ptr %6, align 8, !tbaa !25
  store ptr %2, ptr %7, align 8, !tbaa !25
  %16 = load ptr, ptr %6, align 8, !tbaa !25
  %17 = call noundef zeroext i1 @_ZNK3url9Component11is_nonemptyEv(ptr noundef nonnull align 4 dereferenceable(8) %16)
  br i1 %17, label %19, label %18

18:                                               ; preds = %3
  store i1 false, ptr %4, align 1
  br label %126

19:                                               ; preds = %3
  call void @llvm.lifetime.start.p0(i64 4, ptr %8) #8
  store i32 0, ptr %8, align 4, !tbaa !10
  call void @llvm.lifetime.start.p0(i64 4, ptr %9) #8
  %20 = load ptr, ptr %6, align 8, !tbaa !25
  %21 = getelementptr inbounds nuw %"struct.url::Component", ptr %20, i32 0, i32 0
  %22 = load i32, ptr %21, align 4, !tbaa !20
  store i32 %22, ptr %9, align 4, !tbaa !10
  call void @llvm.lifetime.start.p0(i64 4, ptr %10) #8
  %23 = load ptr, ptr %6, align 8, !tbaa !25
  %24 = call noundef i32 @_ZNK3url9Component3endEv(ptr noundef nonnull align 4 dereferenceable(8) %23)
  store i32 %24, ptr %10, align 4, !tbaa !10
  call void @llvm.lifetime.start.p0(i64 4, ptr %11) #8
  %25 = load ptr, ptr %6, align 8, !tbaa !25
  %26 = getelementptr inbounds nuw %"struct.url::Component", ptr %25, i32 0, i32 0
  %27 = load i32, ptr %26, align 4, !tbaa !20
  store i32 %27, ptr %11, align 4, !tbaa !10
  br label %28

28:                                               ; preds = %109, %19
  %29 = load i32, ptr %11, align 4, !tbaa !10
  %30 = load i32, ptr %10, align 4, !tbaa !10
  %31 = icmp sge i32 %29, %30
  br i1 %31, label %40, label %32

32:                                               ; preds = %28
  %33 = load ptr, ptr %5, align 8, !tbaa !3
  %34 = load i32, ptr %11, align 4, !tbaa !10
  %35 = sext i32 %34 to i64
  %36 = getelementptr inbounds i8, ptr %33, i64 %35
  %37 = load i8, ptr %36, align 1, !tbaa !12
  %38 = sext i8 %37 to i32
  %39 = icmp eq i32 %38, 46
  br i1 %39, label %40, label %91

40:                                               ; preds = %32, %28
  call void @llvm.lifetime.start.p0(i64 4, ptr %12) #8
  %41 = load i32, ptr %11, align 4, !tbaa !10
  %42 = load i32, ptr %9, align 4, !tbaa !10
  %43 = sub nsw i32 %41, %42
  store i32 %43, ptr %12, align 4, !tbaa !10
  call void @llvm.lifetime.start.p0(i64 8, ptr %13) #8
  %44 = load i32, ptr %9, align 4, !tbaa !10
  %45 = load i32, ptr %12, align 4, !tbaa !10
  call void @_ZN3url9ComponentC2Eii(ptr noundef nonnull align 4 dereferenceable(8) %13, i32 noundef %44, i32 noundef %45)
  %46 = load ptr, ptr %7, align 8, !tbaa !25
  %47 = load i32, ptr %8, align 4, !tbaa !10
  %48 = sext i32 %47 to i64
  %49 = getelementptr inbounds %"struct.url::Component", ptr %46, i64 %48
  call void @llvm.memcpy.p0.p0.i64(ptr align 4 %49, ptr align 4 %13, i64 8, i1 false), !tbaa.struct !31
  call void @llvm.lifetime.end.p0(i64 8, ptr %13) #8
  %50 = load i32, ptr %11, align 4, !tbaa !10
  %51 = add nsw i32 %50, 1
  store i32 %51, ptr %9, align 4, !tbaa !10
  %52 = load i32, ptr %8, align 4, !tbaa !10
  %53 = add nsw i32 %52, 1
  store i32 %53, ptr %8, align 4, !tbaa !10
  %54 = load i32, ptr %12, align 4, !tbaa !10
  %55 = icmp eq i32 %54, 0
  br i1 %55, label %56, label %64

56:                                               ; preds = %40
  %57 = load i32, ptr %11, align 4, !tbaa !10
  %58 = load i32, ptr %10, align 4, !tbaa !10
  %59 = icmp slt i32 %57, %58
  br i1 %59, label %63, label %60

60:                                               ; preds = %56
  %61 = load i32, ptr %8, align 4, !tbaa !10
  %62 = icmp eq i32 %61, 1
  br i1 %62, label %63, label %64

63:                                               ; preds = %60, %56
  store i1 false, ptr %4, align 1
  store i32 1, ptr %14, align 4
  br label %88

64:                                               ; preds = %60, %40
  %65 = load i32, ptr %11, align 4, !tbaa !10
  %66 = load i32, ptr %10, align 4, !tbaa !10
  %67 = icmp sge i32 %65, %66
  br i1 %67, label %68, label %69

68:                                               ; preds = %64
  store i32 2, ptr %14, align 4
  br label %88

69:                                               ; preds = %64
  %70 = load i32, ptr %8, align 4, !tbaa !10
  %71 = icmp eq i32 %70, 4
  br i1 %71, label %72, label %87

72:                                               ; preds = %69
  %73 = load ptr, ptr %5, align 8, !tbaa !3
  %74 = load i32, ptr %11, align 4, !tbaa !10
  %75 = sext i32 %74 to i64
  %76 = getelementptr inbounds i8, ptr %73, i64 %75
  %77 = load i8, ptr %76, align 1, !tbaa !12
  %78 = sext i8 %77 to i32
  %79 = icmp eq i32 %78, 46
  br i1 %79, label %80, label %86

80:                                               ; preds = %72
  %81 = load i32, ptr %11, align 4, !tbaa !10
  %82 = add nsw i32 %81, 1
  %83 = load i32, ptr %10, align 4, !tbaa !10
  %84 = icmp eq i32 %82, %83
  br i1 %84, label %85, label %86

85:                                               ; preds = %80
  store i32 2, ptr %14, align 4
  br label %88

86:                                               ; preds = %80, %72
  store i1 false, ptr %4, align 1
  store i32 1, ptr %14, align 4
  br label %88

87:                                               ; preds = %69
  store i32 0, ptr %14, align 4
  br label %88

88:                                               ; preds = %87, %86, %85, %68, %63
  call void @llvm.lifetime.end.p0(i64 4, ptr %12) #8
  %89 = load i32, ptr %14, align 4
  switch i32 %89, label %112 [
    i32 0, label %90
  ]

90:                                               ; preds = %88
  br label %108

91:                                               ; preds = %32
  %92 = load ptr, ptr %5, align 8, !tbaa !3
  %93 = load i32, ptr %11, align 4, !tbaa !10
  %94 = sext i32 %93 to i64
  %95 = getelementptr inbounds i8, ptr %92, i64 %94
  %96 = load i8, ptr %95, align 1, !tbaa !12
  %97 = zext i8 %96 to i32
  %98 = icmp sge i32 %97, 128
  br i1 %98, label %106, label %99

99:                                               ; preds = %91
  %100 = load ptr, ptr %5, align 8, !tbaa !3
  %101 = load i32, ptr %11, align 4, !tbaa !10
  %102 = sext i32 %101 to i64
  %103 = getelementptr inbounds i8, ptr %100, i64 %102
  %104 = load i8, ptr %103, align 1, !tbaa !12
  %105 = call noundef zeroext i1 @_ZN3url10IsIPv4CharEh(i8 noundef zeroext %104)
  br i1 %105, label %107, label %106

106:                                              ; preds = %99, %91
  store i1 false, ptr %4, align 1
  store i32 1, ptr %14, align 4
  br label %112

107:                                              ; preds = %99
  br label %108

108:                                              ; preds = %107, %90
  br label %109

109:                                              ; preds = %108
  %110 = load i32, ptr %11, align 4, !tbaa !10
  %111 = add nsw i32 %110, 1
  store i32 %111, ptr %11, align 4, !tbaa !10
  br label %28, !llvm.loop !33

112:                                              ; preds = %106, %88
  call void @llvm.lifetime.end.p0(i64 4, ptr %11) #8
  %113 = load i32, ptr %14, align 4
  switch i32 %113, label %125 [
    i32 2, label %114
  ]

114:                                              ; preds = %112
  br label %115

115:                                              ; preds = %118, %114
  %116 = load i32, ptr %8, align 4, !tbaa !10
  %117 = icmp slt i32 %116, 4
  br i1 %117, label %118, label %124

118:                                              ; preds = %115
  call void @llvm.lifetime.start.p0(i64 8, ptr %15) #8
  call void @_ZN3url9ComponentC2Ev(ptr noundef nonnull align 4 dereferenceable(8) %15)
  %119 = load ptr, ptr %7, align 8, !tbaa !25
  %120 = load i32, ptr %8, align 4, !tbaa !10
  %121 = add nsw i32 %120, 1
  store i32 %121, ptr %8, align 4, !tbaa !10
  %122 = sext i32 %120 to i64
  %123 = getelementptr inbounds %"struct.url::Component", ptr %119, i64 %122
  call void @llvm.memcpy.p0.p0.i64(ptr align 4 %123, ptr align 4 %15, i64 8, i1 false), !tbaa.struct !31
  call void @llvm.lifetime.end.p0(i64 8, ptr %15) #8
  br label %115, !llvm.loop !34

124:                                              ; preds = %115
  store i1 true, ptr %4, align 1
  store i32 1, ptr %14, align 4
  br label %125

125:                                              ; preds = %124, %112
  call void @llvm.lifetime.end.p0(i64 4, ptr %10) #8
  call void @llvm.lifetime.end.p0(i64 4, ptr %9) #8
  call void @llvm.lifetime.end.p0(i64 4, ptr %8) #8
  br label %126

126:                                              ; preds = %125, %18
  %127 = load i1, ptr %4, align 1
  ret i1 %127
}

; Function Attrs: mustprogress uwtable
define noundef zeroext i1 @_ZN3url18FindIPv4ComponentsEPKcRKNS_9ComponentEPS2_(ptr noundef %0, ptr noundef nonnull align 4 dereferenceable(8) %1, ptr noundef %2) #0 {
  %4 = alloca ptr, align 8
  %5 = alloca ptr, align 8
  %6 = alloca ptr, align 8
  store ptr %0, ptr %4, align 8, !tbaa !3
  store ptr %1, ptr %5, align 8, !tbaa !25
  store ptr %2, ptr %6, align 8, !tbaa !25
  %7 = load ptr, ptr %4, align 8, !tbaa !3
  %8 = load ptr, ptr %5, align 8, !tbaa !25
  %9 = load ptr, ptr %6, align 8, !tbaa !25
  %10 = call noundef zeroext i1 @_ZN3url12_GLOBAL__N_120DoFindIPv4ComponentsIchEEbPKT_RKNS_9ComponentEPS5_(ptr noundef %7, ptr noundef nonnull align 4 dereferenceable(8) %8, ptr noundef %9)
  ret i1 %10
}