; Function Attrs: mustprogress nofree norecurse nosync nounwind memory(argmem: readwrite) uwtable
define noundef zeroext i1 @_ZN3url18FindIPv4ComponentsEPKcRKNS_9ComponentEPS2_(ptr noundef readonly captures(none) %0, ptr noundef nonnull readonly align 4 captures(none) dereferenceable(8) %1, ptr noundef writeonly captures(none) %2) local_unnamed_addr #2 {
  %4 = getelementptr inbounds nuw i8, ptr %1, i64 4
  %.val3 = load i32, ptr %4, align 4, !tbaa !22
  %5 = icmp sgt i32 %.val3, 0
  br i1 %5, label %6, label %_ZN3url12_GLOBAL__N_120DoFindIPv4ComponentsIchEEbPKT_RKNS_9ComponentEPS5_.exit

6:                                                ; preds = %3
  %.val = load i32, ptr %1, align 4
  %7 = add nsw i32 %.val, %.val3
  %8 = sext i32 %.val to i64
  %9 = sext i32 %7 to i64
  br label %.outer

.outer:                                           ; preds = %26, %6
  %indvars.iv.i.ph = phi i64 [ %20, %26 ], [ %8, %6 ]
  %.046.i.ph = phi i32 [ %28, %26 ], [ %.val, %6 ]
  %.042.i.ph = phi i32 [ %21, %26 ], [ 0, %6 ]
  br label %10

10:                                               ; preds = %.outer, %._crit_edge.i
  %indvars.iv.i = phi i64 [ %.pre.i, %._crit_edge.i ], [ %indvars.iv.i.ph, %.outer ]
  %.not.i = icmp slt i64 %indvars.iv.i, %9
  br i1 %.not.i, label %11, label %15

11:                                               ; preds = %10
  %12 = getelementptr inbounds i8, ptr %0, i64 %indvars.iv.i
  %13 = load i8, ptr %12, align 1, !tbaa !3
  %14 = icmp eq i8 %13, 46
  br i1 %14, label %15, label %35

15:                                               ; preds = %11, %10
  %16 = trunc nsw i64 %indvars.iv.i to i32
  %17 = sub nsw i32 %16, %.046.i.ph
  %18 = zext nneg i32 %.042.i.ph to i64
  %19 = getelementptr inbounds nuw %"struct.url::Component", ptr %2, i64 %18
  %.sroa.42.0.insert.ext.i = zext i32 %17 to i64
  %.sroa.42.0.insert.shift.i = shl nuw i64 %.sroa.42.0.insert.ext.i, 32
  %.sroa.01.0.insert.ext.i = zext i32 %.046.i.ph to i64
  %.sroa.01.0.insert.insert.i = or disjoint i64 %.sroa.42.0.insert.shift.i, %.sroa.01.0.insert.ext.i
  store i64 %.sroa.01.0.insert.insert.i, ptr %19, align 4
  %20 = add nsw i64 %indvars.iv.i, 1
  %21 = add nuw nsw i32 %.042.i.ph, 1
  %22 = icmp eq i32 %.046.i.ph, %16
  br i1 %22, label %23, label %25

23:                                               ; preds = %15
  %24 = icmp eq i32 %.042.i.ph, 0
  %or.cond.i = select i1 %.not.i, i1 true, i1 %24
  br i1 %or.cond.i, label %_ZN3url12_GLOBAL__N_120DoFindIPv4ComponentsIchEEbPKT_RKNS_9ComponentEPS5_.exit, label %select.unfold.i

25:                                               ; preds = %15
  br i1 %.not.i, label %26, label %select.unfold.i

26:                                               ; preds = %25
  %27 = icmp eq i32 %21, 4
  %28 = trunc nsw i64 %20 to i32
  br i1 %27, label %29, label %.outer, !llvm.loop !24

29:                                               ; preds = %26
  %sext.i = shl i64 %indvars.iv.i, 32
  %30 = ashr exact i64 %sext.i, 32
  %31 = getelementptr inbounds i8, ptr %0, i64 %30
  %32 = load i8, ptr %31, align 1, !tbaa !3
  %33 = icmp eq i8 %32, 46
  %34 = icmp eq i32 %7, %28
  %or.cond49.i = select i1 %33, i1 %34, i1 false
  br label %_ZN3url12_GLOBAL__N_120DoFindIPv4ComponentsIchEEbPKT_RKNS_9ComponentEPS5_.exit

35:                                               ; preds = %11
  %36 = icmp slt i8 %13, 0
  br i1 %36, label %_ZN3url12_GLOBAL__N_120DoFindIPv4ComponentsIchEEbPKT_RKNS_9ComponentEPS5_.exit, label %37

37:                                               ; preds = %35
  %38 = zext nneg i8 %13 to i64
  %39 = getelementptr inbounds nuw [256 x i8], ptr @_ZN3url20kSharedCharTypeTableE, i64 0, i64 %38
  %40 = load i8, ptr %39, align 1, !tbaa !3
  %41 = and i8 %40, 4
  %.not15.i = icmp eq i8 %41, 0
  br i1 %.not15.i, label %_ZN3url12_GLOBAL__N_120DoFindIPv4ComponentsIchEEbPKT_RKNS_9ComponentEPS5_.exit, label %._crit_edge.i

._crit_edge.i:                                    ; preds = %37
  %.pre.i = add nsw i64 %indvars.iv.i, 1
  br label %10, !llvm.loop !24

select.unfold.i:                                  ; preds = %25, %23
  %42 = icmp samesign ult i32 %.042.i.ph, 3
  br i1 %42, label %.lr.ph.preheader.i, label %_ZN3url12_GLOBAL__N_120DoFindIPv4ComponentsIchEEbPKT_RKNS_9ComponentEPS5_.exit

.lr.ph.preheader.i:                               ; preds = %select.unfold.i
  %43 = zext nneg i32 %21 to i64
  br label %.lr.ph.i

.lr.ph.i:                                         ; preds = %.lr.ph.i, %.lr.ph.preheader.i
  %indvars.iv49.i = phi i64 [ %43, %.lr.ph.preheader.i ], [ %indvars.iv.next50.i, %.lr.ph.i ]
  %indvars.iv.next50.i = add nuw nsw i64 %indvars.iv49.i, 1
  %44 = getelementptr inbounds nuw %"struct.url::Component", ptr %2, i64 %indvars.iv49.i
  store i64 -4294967296, ptr %44, align 4
  %45 = and i64 %indvars.iv.next50.i, 4294967295
  %exitcond.not.i = icmp eq i64 %45, 4
  br i1 %exitcond.not.i, label %_ZN3url12_GLOBAL__N_120DoFindIPv4ComponentsIchEEbPKT_RKNS_9ComponentEPS5_.exit, label %.lr.ph.i, !llvm.loop !25

_ZN3url12_GLOBAL__N_120DoFindIPv4ComponentsIchEEbPKT_RKNS_9ComponentEPS5_.exit: ; preds = %35, %37, %.lr.ph.i, %3, %23, %29, %select.unfold.i
  %.039.i = phi i1 [ false, %3 ], [ false, %23 ], [ true, %select.unfold.i ], [ %or.cond49.i, %29 ], [ true, %.lr.ph.i ], [ false, %37 ], [ false, %35 ]
  ret i1 %.039.i
}